target datalayout = "e-m:e-p270:32:32-p271:32:32-p272:64:64-i64:64-i128:128-f80:128-n8:16:32:64-S128"
target triple = "x86_64-pc-linux-gnu"

%struct._lv_chart_t = type { %struct._lv_obj_t, %struct.lv_ll_t, %struct.lv_ll_t, [2 x i32], [2 x i32], [2 x i32], [2 x i32], i32, i32, i32, i32, i8 }
%struct._lv_obj_t = type { ptr, ptr, ptr, ptr, ptr, %struct.lv_area_t, i32, i16, i16 }
%struct.lv_area_t = type { i32, i32, i32, i32 }
%struct.lv_ll_t = type { i32, ptr, ptr }
%struct.lv_color_t = type { i8, i8, i8 }
%struct.lv_point_t = type { i32, i32 }
%struct._lv_chart_cursor_t = type { %struct.lv_point_t, i32, %struct.lv_color_t, ptr, i32, i8 }

; Function Attrs: nounwind uwtable
define void @lv_chart_refresh(ptr noundef %0) #0 {
  %2 = alloca ptr, align 8
  store ptr %0, ptr %2, align 8, !tbaa !3
  br label %3

3:                                                ; preds = %1
  br label %4

4:                                                ; preds = %3
  %5 = load ptr, ptr %2, align 8, !tbaa !3
  call void @lv_obj_invalidate(ptr noundef %5)
  ret void
}

; Function Attrs: nounwind uwtable
define ptr @lv_chart_get_series_next(ptr noundef %0, ptr noundef %1) #0 {
  %3 = alloca ptr, align 8
  %4 = alloca ptr, align 8
  %5 = alloca ptr, align 8
  %6 = alloca ptr, align 8
  %7 = alloca i32, align 4
  store ptr %0, ptr %4, align 8, !tbaa !3
  store ptr %1, ptr %5, align 8, !tbaa !3
  br label %8

8:                                                ; preds = %2
  br label %9

9:                                                ; preds = %8
  call void @llvm.lifetime.start.p0(i64 8, ptr %6) #5
  %10 = load ptr, ptr %4, align 8, !tbaa !3
  store ptr %10, ptr %6, align 8, !tbaa !3
  %11 = load ptr, ptr %5, align 8, !tbaa !3
  %12 = icmp eq ptr %11, null
  br i1 %12, label %13, label %17

13:                                               ; preds = %9
  %14 = load ptr, ptr %6, align 8, !tbaa !3
  %15 = getelementptr inbounds nuw %struct._lv_chart_t, ptr %14, i32 0, i32 1
  %16 = call ptr @lv_ll_get_head(ptr noundef %15)
  store ptr %16, ptr %3, align 8
  store i32 1, ptr %7, align 4
  br label %22

17:                                               ; preds = %9
  %18 = load ptr, ptr %6, align 8, !tbaa !3
  %19 = getelementptr inbounds nuw %struct._lv_chart_t, ptr %18, i32 0, i32 1
  %20 = load ptr, ptr %5, align 8, !tbaa !3
  %21 = call ptr @lv_ll_get_next(ptr noundef %19, ptr noundef %20)
  store ptr %21, ptr %3, align 8
  store i32 1, ptr %7, align 4
  br label %22

22:                                               ; preds = %17, %13
  call void @llvm.lifetime.end.p0(i64 8, ptr %6) #5
  %23 = load ptr, ptr %3, align 8
  ret ptr %23
}

; Function Attrs: nounwind uwtable
define void @lv_chart_set_cursor_point(ptr noundef %0, ptr noundef %1, ptr noundef %2, i32 noundef %3) #0 {
  %5 = alloca ptr, align 8
  %6 = alloca ptr, align 8
  %7 = alloca ptr, align 8
  %8 = alloca i32, align 4
  store ptr %0, ptr %5, align 8, !tbaa !3
  store ptr %1, ptr %6, align 8, !tbaa !3
  store ptr %2, ptr %7, align 8, !tbaa !3
  store i32 %3, ptr %8, align 4, !tbaa !7
  br label %9

9:                                                ; preds = %4
  %10 = load ptr, ptr %6, align 8, !tbaa !3
  %11 = icmp ne ptr %10, null
  br i1 %11, label %16, label %12

12:                                               ; preds = %9
  br label %13

13:                                               ; preds = %12
  br label %14

14:                                               ; preds = %13
  br label %15

15:                                               ; preds = %14, %15
  br label %15

16:                                               ; preds = %9
  br label %17

17:                                               ; preds = %16
  %18 = load i32, ptr %8, align 4, !tbaa !7
  %19 = load ptr, ptr %6, align 8, !tbaa !3
  %20 = getelementptr inbounds nuw %struct._lv_chart_cursor_t, ptr %19, i32 0, i32 1
  store i32 %18, ptr %20, align 8, !tbaa !49
  %21 = load ptr, ptr %6, align 8, !tbaa !3
  %22 = getelementptr inbounds nuw %struct._lv_chart_cursor_t, ptr %21, i32 0, i32 5
  %23 = load i8, ptr %22, align 4
  %24 = and i8 %23, -2
  %25 = or i8 %24, 0
  store i8 %25, ptr %22, align 4
  %26 = load ptr, ptr %7, align 8, !tbaa !3
  %27 = icmp eq ptr %26, null
  br i1 %27, label %28, label %31

28:                                               ; preds = %17
  %29 = load ptr, ptr %5, align 8, !tbaa !3
  %30 = call ptr @lv_chart_get_series_next(ptr noundef %29, ptr noundef null)
  store ptr %30, ptr %7, align 8, !tbaa !3
  br label %31

31:                                               ; preds = %28, %17
  %32 = load ptr, ptr %7, align 8, !tbaa !3
  %33 = load ptr, ptr %6, align 8, !tbaa !3
  %34 = getelementptr inbounds nuw %struct._lv_chart_cursor_t, ptr %33, i32 0, i32 3
  store ptr %32, ptr %34, align 8, !tbaa !53
  %35 = load ptr, ptr %5, align 8, !tbaa !3
  call void @lv_chart_refresh(ptr noundef %35)
  ret void
}