; Function Attrs: nounwind uwtable
define void @lv_chart_set_cursor_point(ptr noundef %0, ptr noundef %1, ptr noundef %2, i32 noundef %3) local_unnamed_addr #0 {
  %.not = icmp eq ptr %1, null
  br i1 %.not, label %.preheader, label %5

.preheader:                                       ; preds = %4, %.preheader
  br label %.preheader

5:                                                ; preds = %4
  %6 = getelementptr inbounds nuw i8, ptr %1, i64 8
  store i32 %3, ptr %6, align 8, !tbaa !50
  %7 = getelementptr inbounds nuw i8, ptr %1, i64 28
  %8 = load i8, ptr %7, align 4
  %9 = and i8 %8, -2
  store i8 %9, ptr %7, align 4
  %10 = icmp eq ptr %2, null
  br i1 %10, label %11, label %14

11:                                               ; preds = %5
  %12 = getelementptr inbounds nuw i8, ptr %0, i64 64
  %13 = tail call ptr @lv_ll_get_head(ptr noundef nonnull %12) #8
  br label %14

14:                                               ; preds = %11, %5
  %.0 = phi ptr [ %13, %11 ], [ %2, %5 ]
  %15 = getelementptr inbounds nuw i8, ptr %1, i64 16
  store ptr %.0, ptr %15, align 8, !tbaa !51
  tail call void @lv_obj_invalidate(ptr noundef %0) #8
  ret void
}